target datalayout = "e-m:e-p270:32:32-p271:32:32-p272:64:64-i64:64-i128:128-f80:128-n8:16:32:64-S128"
target triple = "x86_64-pc-linux-gnu"

%struct.KDF_SCRYPT = type { ptr, ptr, ptr, i64, ptr, i64, i64, i64, i64, i64, ptr }

@.str = private unnamed_addr constant [51 x i8] c"../openssl/providers/implementations/kdfs/scrypt.c\00", align 1

; Function Attrs: nounwind uwtable
define internal i32 @set_property_query(ptr noundef %0, ptr noundef %1) #0 {
  %3 = alloca i32, align 4
  %4 = alloca ptr, align 8
  %5 = alloca ptr, align 8
  store ptr %0, ptr %4, align 8, !tbaa !3
  store ptr %1, ptr %5, align 8, !tbaa !23
  %6 = load ptr, ptr %4, align 8, !tbaa !3
  %7 = getelementptr inbounds nuw %struct.KDF_SCRYPT, ptr %6, i32 0, i32 1
  %8 = load ptr, ptr %7, align 8, !tbaa !14
  call void @CRYPTO_free(ptr noundef %8, ptr noundef @.str, i32 noundef 175)
  %9 = load ptr, ptr %4, align 8, !tbaa !3
  %10 = getelementptr inbounds nuw %struct.KDF_SCRYPT, ptr %9, i32 0, i32 1
  store ptr null, ptr %10, align 8, !tbaa !14
  %11 = load ptr, ptr %5, align 8, !tbaa !23
  %12 = icmp ne ptr %11, null
  br i1 %12, label %13, label %24

13:                                               ; preds = %2
  %14 = load ptr, ptr %5, align 8, !tbaa !23
  %15 = call noalias ptr @CRYPTO_strdup(ptr noundef %14, ptr noundef @.str, i32 noundef 178)
  %16 = load ptr, ptr %4, align 8, !tbaa !3
  %17 = getelementptr inbounds nuw %struct.KDF_SCRYPT, ptr %16, i32 0, i32 1
  store ptr %15, ptr %17, align 8, !tbaa !14
  %18 = load ptr, ptr %4, align 8, !tbaa !3
  %19 = getelementptr inbounds nuw %struct.KDF_SCRYPT, ptr %18, i32 0, i32 1
  %20 = load ptr, ptr %19, align 8, !tbaa !14
  %21 = icmp eq ptr %20, null
  br i1 %21, label %22, label %23

22:                                               ; preds = %13
  store i32 0, ptr %3, align 4
  br label %25

23:                                               ; preds = %13
  br label %24

24:                                               ; preds = %23, %2
  store i32 1, ptr %3, align 4
  br label %25

25:                                               ; preds = %24, %22
  %26 = load i32, ptr %3, align 4
  ret i32 %26
}